; Function Attrs: mustprogress nofree norecurse nosync nounwind willreturn memory(read, argmem: readwrite, inaccessiblemem: none) uwtable
define void @H5E__set_default_auto(ptr noundef writeonly captures(none) %0) local_unnamed_addr #3 {
  %2 = load i8, ptr @H5E_init_g, align 1, !tbaa !3, !range !7, !noundef !8
  %3 = trunc nuw i8 %2 to i1
  %4 = load i8, ptr @H5_libterm_g, align 1, !range !7
  %5 = trunc nuw i8 %4 to i1
  %6 = xor i1 %5, true
  %7 = select i1 %3, i1 true, i1 %6
  br i1 %7, label %8, label %9, !prof !9

8:                                                ; preds = %1
  tail call void @llvm.memcpy.p0.p0.i64(ptr noundef nonnull align 8 dereferenceable(2112) %0, ptr noundef nonnull align 8 dereferenceable(2112) @H5E_err_stack_def, i64 2112, i1 false)
  br label %9

9:                                                ; preds = %8, %1
  ret void
}